target datalayout = "e-m:e-p270:32:32-p271:32:32-p272:64:64-i64:64-i128:128-f80:128-n8:16:32:64-S128"
target triple = "x86_64-pc-linux-gnu"

%"struct.draco::ShannonEntropyTracker::EntropyData" = type <{ double, i32, i32, i32, [4 x i8] }>

; Function Attrs: inlinehint mustprogress nounwind uwtable
define internal noundef i64 @_ZN5dracoL33ApproximateRAnsFrequencyTableBitsEii(i32 noundef %0, i32 noundef %1) #9 {
  %3 = alloca i32, align 4
  %4 = alloca i32, align 4
  %5 = alloca i64, align 8
  store i32 %0, ptr %3, align 4, !tbaa !8
  store i32 %1, ptr %4, align 4, !tbaa !8
  call void @llvm.lifetime.start.p0(i64 8, ptr %5) #3
  %6 = load i32, ptr %4, align 4, !tbaa !8
  %7 = load i32, ptr %3, align 4, !tbaa !8
  %8 = load i32, ptr %4, align 4, !tbaa !8
  %9 = sub nsw i32 %7, %8
  %10 = sdiv i32 %9, 64
  %11 = add nsw i32 %6, %10
  %12 = mul nsw i32 8, %11
  %13 = sext i32 %12 to i64
  store i64 %13, ptr %5, align 8, !tbaa !19
  %14 = load i32, ptr %4, align 4, !tbaa !8
  %15 = mul nsw i32 8, %14
  %16 = sext i32 %15 to i64
  %17 = load i64, ptr %5, align 8, !tbaa !19
  %18 = add nsw i64 %16, %17
  call void @llvm.lifetime.end.p0(i64 8, ptr %5) #3
  ret i64 %18
}

; Function Attrs: mustprogress uwtable
define noundef i64 @_ZN5draco21ShannonEntropyTracker24GetNumberOfRAnsTableBitsERKNS0_11EntropyDataE(ptr noundef nonnull align 8 dereferenceable(20) %0) #4 align 2 {
  %2 = alloca ptr, align 8
  store ptr %0, ptr %2, align 8, !tbaa !26
  %3 = load ptr, ptr %2, align 8, !tbaa !26
  %4 = getelementptr inbounds nuw %"struct.draco::ShannonEntropyTracker::EntropyData", ptr %3, i32 0, i32 2
  %5 = load i32, ptr %4, align 4, !tbaa !31
  %6 = add nsw i32 %5, 1
  %7 = load ptr, ptr %2, align 8, !tbaa !26
  %8 = getelementptr inbounds nuw %"struct.draco::ShannonEntropyTracker::EntropyData", ptr %7, i32 0, i32 3
  %9 = load i32, ptr %8, align 8, !tbaa !32
  %10 = call noundef i64 @_ZN5dracoL33ApproximateRAnsFrequencyTableBitsEii(i32 noundef %6, i32 noundef %9)
  ret i64 %10
}