; Function Attrs: mustprogress nofree norecurse nosync nounwind willreturn memory(argmem: read) uwtable
define noundef range(i64 -4294967296, 4294967281) i64 @_ZN5draco21ShannonEntropyTracker24GetNumberOfRAnsTableBitsERKNS0_11EntropyDataE(ptr noundef nonnull readonly align 8 captures(none) dereferenceable(20) %0) local_unnamed_addr #11 align 2 {
  %2 = getelementptr inbounds nuw i8, ptr %0, i64 12
  %3 = load i32, ptr %2, align 4, !tbaa !23
  %4 = add nsw i32 %3, 1
  %5 = getelementptr inbounds nuw i8, ptr %0, i64 16
  %6 = load i32, ptr %5, align 8, !tbaa !24
  %7 = sub i32 %4, %6
  %8 = sdiv i32 %7, 64
  %9 = add nsw i32 %8, %6
  %10 = shl nsw i32 %9, 3
  %11 = sext i32 %10 to i64
  %12 = shl nsw i32 %6, 3
  %13 = sext i32 %12 to i64
  %14 = add nsw i64 %11, %13
  ret i64 %14
}